; Function Attrs: mustprogress nounwind uwtable
define hidden void @_ZN4llvh16FoldingSetNodeID10AddIntegerEy(ptr noundef nonnull align 8 dereferenceable(144) %this, i64 noundef %I) local_unnamed_addr #0 align 2 {
entry:
  %conv = trunc i64 %I to i32
  %Size.i.i.i = getelementptr inbounds i8, ptr %this, i64 8
  %0 = load i32, ptr %Size.i.i.i, align 8
  %Capacity.i.i.i = getelementptr inbounds i8, ptr %this, i64 12
  %1 = load i32, ptr %Capacity.i.i.i, align 4
  %cmp.not.i.i = icmp ult i32 %0, %1
  br i1 %cmp.not.i.i, label %_ZN4llvh16FoldingSetNodeID10AddIntegerEj.exit, label %if.then.i.i

if.then.i.i:                                      ; preds = %entry
  %add.ptr.i.i.i.i.i = getelementptr inbounds i8, ptr %this, i64 16
  tail call void @_ZN4llvh15SmallVectorBase8grow_podEPvmm(ptr noundef nonnull align 8 dereferenceable(16) %this, ptr noundef nonnull %add.ptr.i.i.i.i.i, i64 noundef 0, i64 noundef 4) #21
  %.pre.i.i = load i32, ptr %Size.i.i.i, align 8
  br label %_ZN4llvh16FoldingSetNodeID10AddIntegerEj.exit

_ZN4llvh16FoldingSetNodeID10AddIntegerEj.exit:    ; preds = %entry, %if.then.i.i
  %2 = phi i32 [ %.pre.i.i, %if.then.i.i ], [ %0, %entry ]
  %3 = load ptr, ptr %this, align 8
  %conv.i3.i.i = zext i32 %2 to i64
  %add.ptr.i.i.i = getelementptr inbounds i32, ptr %3, i64 %conv.i3.i.i
  store i32 %conv, ptr %add.ptr.i.i.i, align 1
  %4 = load i32, ptr %Size.i.i.i, align 8
  %add.i.i = add i32 %4, 1
  store i32 %add.i.i, ptr %Size.i.i.i, align 8
  %5 = load i32, ptr %Capacity.i.i.i, align 4
  %cmp.not.i.i4 = icmp ult i32 %add.i.i, %5
  br i1 %cmp.not.i.i4, label %_ZN4llvh16FoldingSetNodeID10AddIntegerEj.exit11, label %if.then.i.i5

if.then.i.i5:                                     ; preds = %_ZN4llvh16FoldingSetNodeID10AddIntegerEj.exit
  %add.ptr.i.i.i.i.i6 = getelementptr inbounds i8, ptr %this, i64 16
  tail call void @_ZN4llvh15SmallVectorBase8grow_podEPvmm(ptr noundef nonnull align 8 dereferenceable(16) %this, ptr noundef nonnull %add.ptr.i.i.i.i.i6, i64 noundef 0, i64 noundef 4) #21
  %.pre.i.i7 = load i32, ptr %Size.i.i.i, align 8
  br label %_ZN4llvh16FoldingSetNodeID10AddIntegerEj.exit11

_ZN4llvh16FoldingSetNodeID10AddIntegerEj.exit11:  ; preds = %_ZN4llvh16FoldingSetNodeID10AddIntegerEj.exit, %if.then.i.i5
  %6 = phi i32 [ %.pre.i.i7, %if.then.i.i5 ], [ %add.i.i, %_ZN4llvh16FoldingSetNodeID10AddIntegerEj.exit ]
  %shr = lshr i64 %I, 32
  %conv2 = trunc i64 %shr to i32
  %7 = load ptr, ptr %this, align 8
  %conv.i3.i.i8 = zext i32 %6 to i64
  %add.ptr.i.i.i9 = getelementptr inbounds i32, ptr %7, i64 %conv.i3.i.i8
  store i32 %conv2, ptr %add.ptr.i.i.i9, align 1
  %8 = load i32, ptr %Size.i.i.i, align 8
  %add.i.i10 = add i32 %8, 1
  store i32 %add.i.i10, ptr %Size.i.i.i, align 8
  ret void
}